target datalayout = "e-m:e-p270:32:32-p271:32:32-p272:64:64-i64:64-i128:128-f80:128-n8:16:32:64-S128"
target triple = "x86_64-pc-linux-gnu"

%struct._typeobject = type { %struct.PyVarObject, ptr, i64, i64, ptr, i64, ptr, ptr, ptr, ptr, ptr, ptr, ptr, ptr, ptr, ptr, ptr, ptr, ptr, i64, ptr, ptr, ptr, ptr, i64, ptr, ptr, ptr, ptr, ptr, ptr, ptr, ptr, ptr, i64, ptr, ptr, ptr, ptr, ptr, ptr, ptr, ptr, ptr, ptr, ptr, i32, ptr, ptr, i8, i16 }
%struct.PyVarObject = type { %struct._object, i64 }
%struct._object = type { %union.anon, ptr }
%union.anon = type { i64 }
%struct.PyNumberMethods = type { ptr, ptr, ptr, ptr, ptr, ptr, ptr, ptr, ptr, ptr, ptr, ptr, ptr, ptr, ptr, ptr, ptr, ptr, ptr, ptr, ptr, ptr, ptr, ptr, ptr, ptr, ptr, ptr, ptr, ptr, ptr, ptr, ptr, ptr, ptr, ptr }

@PyLong_Type = external global %struct._typeobject, align 8
@PyExc_DeprecationWarning = external global ptr, align 8

; Function Attrs: nounwind uwtable
define internal ptr @bool_invert(ptr noundef %0) #0 {
  %2 = alloca ptr, align 8
  %3 = alloca ptr, align 8
  store ptr %0, ptr %3, align 8, !tbaa !8
  %4 = load ptr, ptr @PyExc_DeprecationWarning, align 8, !tbaa !8
  %5 = call i32 @PyErr_WarnEx(ptr noundef %4, ptr noundef @.str.3, i64 noundef 1)
  %6 = icmp slt i32 %5, 0
  br i1 %6, label %7, label %8

7:                                                ; preds = %1
  store ptr null, ptr %2, align 8
  br label %14

8:                                                ; preds = %1
  %9 = load ptr, ptr getelementptr inbounds nuw (%struct._typeobject, ptr @PyLong_Type, i32 0, i32 10), align 8, !tbaa !15
  %10 = getelementptr inbounds nuw %struct.PyNumberMethods, ptr %9, i32 0, i32 10
  %11 = load ptr, ptr %10, align 8, !tbaa !25
  %12 = load ptr, ptr %3, align 8, !tbaa !8
  %13 = call ptr %11(ptr noundef %12)
  store ptr %13, ptr %2, align 8
  br label %14

14:                                               ; preds = %8, %7
  %15 = load ptr, ptr %2, align 8
  ret ptr %15
}