; Function Attrs: nounwind uwtable
define internal ptr @bool_invert(ptr noundef %0) #1 {
  %2 = load ptr, ptr @PyExc_DeprecationWarning, align 8, !tbaa !4
  %3 = tail call i32 @PyErr_WarnEx(ptr noundef %2, ptr noundef nonnull @.str.3, i64 noundef 1) #4
  %4 = icmp slt i32 %3, 0
  br i1 %4, label %10, label %5

5:                                                ; preds = %1
  %6 = load ptr, ptr getelementptr inbounds nuw (i8, ptr @PyLong_Type, i64 96), align 8, !tbaa !9
  %7 = getelementptr inbounds nuw i8, ptr %6, i64 80
  %8 = load ptr, ptr %7, align 8, !tbaa !21
  %9 = tail call ptr %8(ptr noundef %0) #4
  br label %10

10:                                               ; preds = %1, %5
  %.0 = phi ptr [ %9, %5 ], [ null, %1 ]
  ret ptr %.0
}